; Function Attrs: mustprogress nofree norecurse nosync nounwind willreturn memory(read, inaccessiblemem: none) uwtable
define internal range(i32 0, 2) i32 @_het_job_id_match(ptr noundef readonly captures(none) %0, ptr noundef readonly captures(none) %1) #14 {
  %3 = getelementptr inbounds nuw i8, ptr %0, i64 56
  %4 = load ptr, ptr %3, align 8
  %5 = getelementptr inbounds nuw i8, ptr %4, i64 396
  %6 = load i32, ptr %5, align 4
  %7 = getelementptr inbounds nuw i8, ptr %1, i64 396
  %8 = load i32, ptr %7, align 4
  %9 = icmp eq i32 %6, %8
  %. = zext i1 %9 to i32
  ret i32 %.
}